target datalayout = "e-m:e-p270:32:32-p271:32:32-p272:64:64-i64:64-i128:128-f80:128-n8:16:32:64-S128"
target triple = "x86_64-pc-linux-gnu"

%struct.jpeg_compress_struct = type { ptr, ptr, ptr, ptr, i32, i32, ptr, i32, i32, i32, i32, double, i32, i32, i32, ptr, [4 x ptr], [4 x ptr], [4 x ptr], [16 x i8], [16 x i8], [16 x i8], i32, ptr, i32, i32, i32, i32, i32, i32, i32, i32, i32, i8, i8, i8, i16, i16, i32, i32, i32, i32, i32, i32, i32, [4 x ptr], i32, i32, i32, [10 x i32], i32, i32, i32, i32, ptr, ptr, ptr, ptr, ptr, ptr, ptr, ptr, ptr, ptr, i32 }
%struct.jpeg_memory_mgr = type { ptr, ptr, ptr, ptr, ptr, ptr, ptr, ptr, ptr, ptr, ptr, i64, i64 }
%struct.my_coef_controller = type { %struct.jpeg_c_coef_controller, i32, i32, i32, i32, [10 x ptr], [10 x ptr] }
%struct.jpeg_c_coef_controller = type { ptr, ptr }
%struct.jpeg_component_info = type { i32, i32, i32, i32, i32, i32, i32, i32, i32, i32, i32, i32, i32, i32, i32, i32, i32, i32, i32, ptr, ptr }
%struct.jpeg_forward_dct = type { ptr, ptr }

; Function Attrs: nounwind uwtable
define internal i32 @compress_first_pass(ptr noundef %0, ptr noundef %1) #0 {
  %3 = alloca ptr, align 8
  %4 = alloca ptr, align 8
  %5 = alloca ptr, align 8
  %6 = alloca i32, align 4
  %7 = alloca i32, align 4
  %8 = alloca i32, align 4
  %9 = alloca i32, align 4
  %10 = alloca i32, align 4
  %11 = alloca i32, align 4
  %12 = alloca i32, align 4
  %13 = alloca i32, align 4
  %14 = alloca i32, align 4
  %15 = alloca i32, align 4
  %16 = alloca i16, align 2
  %17 = alloca ptr, align 8
  %18 = alloca ptr, align 8
  %19 = alloca ptr, align 8
  %20 = alloca ptr, align 8
  store ptr %0, ptr %3, align 8
  store ptr %1, ptr %4, align 8
  %21 = load ptr, ptr %3, align 8
  %22 = getelementptr inbounds %struct.jpeg_compress_struct, ptr %21, i32 0, i32 57
  %23 = load ptr, ptr %22, align 8
  store ptr %23, ptr %5, align 8
  %24 = load ptr, ptr %3, align 8
  %25 = getelementptr inbounds %struct.jpeg_compress_struct, ptr %24, i32 0, i32 43
  %26 = load i32, ptr %25, align 8
  %27 = sub i32 %26, 1
  store i32 %27, ptr %6, align 4
  store i32 0, ptr %11, align 4
  %28 = load ptr, ptr %3, align 8
  %29 = getelementptr inbounds %struct.jpeg_compress_struct, ptr %28, i32 0, i32 15
  %30 = load ptr, ptr %29, align 8
  store ptr %30, ptr %17, align 8
  br label %31

31:                                               ; preds = %242, %2
  %32 = load i32, ptr %11, align 4
  %33 = load ptr, ptr %3, align 8
  %34 = getelementptr inbounds %struct.jpeg_compress_struct, ptr %33, i32 0, i32 13
  %35 = load i32, ptr %34, align 4
  %36 = icmp slt i32 %32, %35
  br i1 %36, label %37, label %247

37:                                               ; preds = %31
  %38 = load ptr, ptr %3, align 8
  %39 = getelementptr inbounds %struct.jpeg_compress_struct, ptr %38, i32 0, i32 1
  %40 = load ptr, ptr %39, align 8
  %41 = getelementptr inbounds %struct.jpeg_memory_mgr, ptr %40, i32 0, i32 8
  %42 = load ptr, ptr %41, align 8
  %43 = load ptr, ptr %3, align 8
  %44 = load ptr, ptr %5, align 8
  %45 = getelementptr inbounds %struct.my_coef_controller, ptr %44, i32 0, i32 6
  %46 = load i32, ptr %11, align 4
  %47 = sext i32 %46 to i64
  %48 = getelementptr inbounds [10 x ptr], ptr %45, i64 0, i64 %47
  %49 = load ptr, ptr %48, align 8
  %50 = load ptr, ptr %5, align 8
  %51 = getelementptr inbounds %struct.my_coef_controller, ptr %50, i32 0, i32 1
  %52 = load i32, ptr %51, align 8
  %53 = load ptr, ptr %17, align 8
  %54 = getelementptr inbounds %struct.jpeg_component_info, ptr %53, i32 0, i32 3
  %55 = load i32, ptr %54, align 4
  %56 = mul i32 %52, %55
  %57 = load ptr, ptr %17, align 8
  %58 = getelementptr inbounds %struct.jpeg_component_info, ptr %57, i32 0, i32 3
  %59 = load i32, ptr %58, align 4
  %60 = call ptr %42(ptr noundef %43, ptr noundef %49, i32 noundef %56, i32 noundef %59, i32 noundef 1)
  store ptr %60, ptr %18, align 8
  %61 = load ptr, ptr %5, align 8
  %62 = getelementptr inbounds %struct.my_coef_controller, ptr %61, i32 0, i32 1
  %63 = load i32, ptr %62, align 8
  %64 = load i32, ptr %6, align 4
  %65 = icmp ult i32 %63, %64
  br i1 %65, label %66, label %70

66:                                               ; preds = %37
  %67 = load ptr, ptr %17, align 8
  %68 = getelementptr inbounds %struct.jpeg_component_info, ptr %67, i32 0, i32 3
  %69 = load i32, ptr %68, align 4
  store i32 %69, ptr %14, align 4
  br label %85

70:                                               ; preds = %37
  %71 = load ptr, ptr %17, align 8
  %72 = getelementptr inbounds %struct.jpeg_component_info, ptr %71, i32 0, i32 8
  %73 = load i32, ptr %72, align 8
  %74 = load ptr, ptr %17, align 8
  %75 = getelementptr inbounds %struct.jpeg_component_info, ptr %74, i32 0, i32 3
  %76 = load i32, ptr %75, align 4
  %77 = urem i32 %73, %76
  store i32 %77, ptr %14, align 4
  %78 = load i32, ptr %14, align 4
  %79 = icmp eq i32 %78, 0
  br i1 %79, label %80, label %84

80:                                               ; preds = %70
  %81 = load ptr, ptr %17, align 8
  %82 = getelementptr inbounds %struct.jpeg_component_info, ptr %81, i32 0, i32 3
  %83 = load i32, ptr %82, align 4
  store i32 %83, ptr %14, align 4
  br label %84

84:                                               ; preds = %80, %70
  br label %85

85:                                               ; preds = %84, %66
  %86 = load ptr, ptr %17, align 8
  %87 = getelementptr inbounds %struct.jpeg_component_info, ptr %86, i32 0, i32 7
  %88 = load i32, ptr %87, align 4
  store i32 %88, ptr %7, align 4
  %89 = load ptr, ptr %17, align 8
  %90 = getelementptr inbounds %struct.jpeg_component_info, ptr %89, i32 0, i32 2
  %91 = load i32, ptr %90, align 8
  store i32 %91, ptr %12, align 4
  %92 = load i32, ptr %7, align 4
  %93 = load i32, ptr %12, align 4
  %94 = urem i32 %92, %93
  store i32 %94, ptr %15, align 4
  %95 = load i32, ptr %15, align 4
  %96 = icmp sgt i32 %95, 0
  br i1 %96, label %97, label %101

97:                                               ; preds = %85
  %98 = load i32, ptr %12, align 4
  %99 = load i32, ptr %15, align 4
  %100 = sub nsw i32 %98, %99
  store i32 %100, ptr %15, align 4
  br label %101

101:                                              ; preds = %97, %85
  store i32 0, ptr %13, align 4
  br label %102

102:                                              ; preds = %159, %101
  %103 = load i32, ptr %13, align 4
  %104 = load i32, ptr %14, align 4
  %105 = icmp slt i32 %103, %104
  br i1 %105, label %106, label %162

106:                                              ; preds = %102
  %107 = load ptr, ptr %18, align 8
  %108 = load i32, ptr %13, align 4
  %109 = sext i32 %108 to i64
  %110 = getelementptr inbounds ptr, ptr %107, i64 %109
  %111 = load ptr, ptr %110, align 8
  store ptr %111, ptr %19, align 8
  %112 = load ptr, ptr %3, align 8
  %113 = getelementptr inbounds %struct.jpeg_compress_struct, ptr %112, i32 0, i32 61
  %114 = load ptr, ptr %113, align 8
  %115 = getelementptr inbounds %struct.jpeg_forward_dct, ptr %114, i32 0, i32 1
  %116 = load ptr, ptr %115, align 8
  %117 = load ptr, ptr %3, align 8
  %118 = load ptr, ptr %17, align 8
  %119 = load ptr, ptr %4, align 8
  %120 = load i32, ptr %11, align 4
  %121 = sext i32 %120 to i64
  %122 = getelementptr inbounds ptr, ptr %119, i64 %121
  %123 = load ptr, ptr %122, align 8
  %124 = load ptr, ptr %19, align 8
  %125 = load i32, ptr %13, align 4
  %126 = mul nsw i32 %125, 8
  %127 = load i32, ptr %7, align 4
  call void %116(ptr noundef %117, ptr noundef %118, ptr noundef %123, ptr noundef %124, i32 noundef %126, i32 noundef 0, i32 noundef %127)
  %128 = load i32, ptr %15, align 4
  %129 = icmp sgt i32 %128, 0
  br i1 %129, label %130, label %158

130:                                              ; preds = %106
  %131 = load i32, ptr %7, align 4
  %132 = load ptr, ptr %19, align 8
  %133 = zext i32 %131 to i64
  %134 = getelementptr inbounds [64 x i16], ptr %132, i64 %133
  store ptr %134, ptr %19, align 8
  %135 = load ptr, ptr %19, align 8
  %136 = load i32, ptr %15, align 4
  %137 = sext i32 %136 to i64
  %138 = mul i64 %137, 128
  call void @jZeroFar(ptr noundef %135, i64 noundef %138)
  %139 = load ptr, ptr %19, align 8
  %140 = getelementptr inbounds [64 x i16], ptr %139, i64 -1
  %141 = getelementptr inbounds [64 x i16], ptr %140, i64 0, i64 0
  %142 = load i16, ptr %141, align 2
  store i16 %142, ptr %16, align 2
  store i32 0, ptr %10, align 4
  br label %143

143:                                              ; preds = %154, %130
  %144 = load i32, ptr %10, align 4
  %145 = load i32, ptr %15, align 4
  %146 = icmp slt i32 %144, %145
  br i1 %146, label %147, label %157

147:                                              ; preds = %143
  %148 = load i16, ptr %16, align 2
  %149 = load ptr, ptr %19, align 8
  %150 = load i32, ptr %10, align 4
  %151 = sext i32 %150 to i64
  %152 = getelementptr inbounds [64 x i16], ptr %149, i64 %151
  %153 = getelementptr inbounds [64 x i16], ptr %152, i64 0, i64 0
  store i16 %148, ptr %153, align 2
  br label %154

154:                                              ; preds = %147
  %155 = load i32, ptr %10, align 4
  %156 = add nsw i32 %155, 1
  store i32 %156, ptr %10, align 4
  br label %143, !llvm.loop !15

157:                                              ; preds = %143
  br label %158

158:                                              ; preds = %157, %106
  br label %159

159:                                              ; preds = %158
  %160 = load i32, ptr %13, align 4
  %161 = add nsw i32 %160, 1
  store i32 %161, ptr %13, align 4
  br label %102, !llvm.loop !16

162:                                              ; preds = %102
  %163 = load ptr, ptr %5, align 8
  %164 = getelementptr inbounds %struct.my_coef_controller, ptr %163, i32 0, i32 1
  %165 = load i32, ptr %164, align 8
  %166 = load i32, ptr %6, align 4
  %167 = icmp eq i32 %165, %166
  br i1 %167, label %168, label %241

168:                                              ; preds = %162
  %169 = load i32, ptr %15, align 4
  %170 = load i32, ptr %7, align 4
  %171 = add i32 %170, %169
  store i32 %171, ptr %7, align 4
  %172 = load i32, ptr %7, align 4
  %173 = load i32, ptr %12, align 4
  %174 = udiv i32 %172, %173
  store i32 %174, ptr %8, align 4
  %175 = load i32, ptr %14, align 4
  store i32 %175, ptr %13, align 4
  br label %176

176:                                              ; preds = %237, %168
  %177 = load i32, ptr %13, align 4
  %178 = load ptr, ptr %17, align 8
  %179 = getelementptr inbounds %struct.jpeg_component_info, ptr %178, i32 0, i32 3
  %180 = load i32, ptr %179, align 4
  %181 = icmp slt i32 %177, %180
  br i1 %181, label %182, label %240

182:                                              ; preds = %176
  %183 = load ptr, ptr %18, align 8
  %184 = load i32, ptr %13, align 4
  %185 = sext i32 %184 to i64
  %186 = getelementptr inbounds ptr, ptr %183, i64 %185
  %187 = load ptr, ptr %186, align 8
  store ptr %187, ptr %19, align 8
  %188 = load ptr, ptr %18, align 8
  %189 = load i32, ptr %13, align 4
  %190 = sub nsw i32 %189, 1
  %191 = sext i32 %190 to i64
  %192 = getelementptr inbounds ptr, ptr %188, i64 %191
  %193 = load ptr, ptr %192, align 8
  store ptr %193, ptr %20, align 8
  %194 = load ptr, ptr %19, align 8
  %195 = load i32, ptr %7, align 4
  %196 = zext i32 %195 to i64
  %197 = mul i64 %196, 128
  call void @jZeroFar(ptr noundef %194, i64 noundef %197)
  store i32 0, ptr %9, align 4
  br label %198

198:                                              ; preds = %233, %182
  %199 = load i32, ptr %9, align 4
  %200 = load i32, ptr %8, align 4
  %201 = icmp ult i32 %199, %200
  br i1 %201, label %202, label %236

202:                                              ; preds = %198
  %203 = load ptr, ptr %20, align 8
  %204 = load i32, ptr %12, align 4
  %205 = sub nsw i32 %204, 1
  %206 = sext i32 %205 to i64
  %207 = getelementptr inbounds [64 x i16], ptr %203, i64 %206
  %208 = getelementptr inbounds [64 x i16], ptr %207, i64 0, i64 0
  %209 = load i16, ptr %208, align 2
  store i16 %209, ptr %16, align 2
  store i32 0, ptr %10, align 4
  br label %210

210:                                              ; preds = %221, %202
  %211 = load i32, ptr %10, align 4
  %212 = load i32, ptr %12, align 4
  %213 = icmp slt i32 %211, %212
  br i1 %213, label %214, label %224

214:                                              ; preds = %210
  %215 = load i16, ptr %16, align 2
  %216 = load ptr, ptr %19, align 8
  %217 = load i32, ptr %10, align 4
  %218 = sext i32 %217 to i64
  %219 = getelementptr inbounds [64 x i16], ptr %216, i64 %218
  %220 = getelementptr inbounds [64 x i16], ptr %219, i64 0, i64 0
  store i16 %215, ptr %220, align 2
  br label %221

221:                                              ; preds = %214
  %222 = load i32, ptr %10, align 4
  %223 = add nsw i32 %222, 1
  store i32 %223, ptr %10, align 4
  br label %210, !llvm.loop !17

224:                                              ; preds = %210
  %225 = load i32, ptr %12, align 4
  %226 = load ptr, ptr %19, align 8
  %227 = sext i32 %225 to i64
  %228 = getelementptr inbounds [64 x i16], ptr %226, i64 %227
  store ptr %228, ptr %19, align 8
  %229 = load i32, ptr %12, align 4
  %230 = load ptr, ptr %20, align 8
  %231 = sext i32 %229 to i64
  %232 = getelementptr inbounds [64 x i16], ptr %230, i64 %231
  store ptr %232, ptr %20, align 8
  br label %233

233:                                              ; preds = %224
  %234 = load i32, ptr %9, align 4
  %235 = add i32 %234, 1
  store i32 %235, ptr %9, align 4
  br label %198, !llvm.loop !18

236:                                              ; preds = %198
  br label %237

237:                                              ; preds = %236
  %238 = load i32, ptr %13, align 4
  %239 = add nsw i32 %238, 1
  store i32 %239, ptr %13, align 4
  br label %176, !llvm.loop !19

240:                                              ; preds = %176
  br label %241

241:                                              ; preds = %240, %162
  br label %242

242:                                              ; preds = %241
  %243 = load i32, ptr %11, align 4
  %244 = add nsw i32 %243, 1
  store i32 %244, ptr %11, align 4
  %245 = load ptr, ptr %17, align 8
  %246 = getelementptr inbounds %struct.jpeg_component_info, ptr %245, i32 1
  store ptr %246, ptr %17, align 8
  br label %31, !llvm.loop !20

247:                                              ; preds = %31
  %248 = load ptr, ptr %3, align 8
  %249 = load ptr, ptr %4, align 8
  %250 = call i32 @compress_output(ptr noundef %248, ptr noundef %249)
  ret i32 %250
}