; Function Attrs: nounwind uwtable
define internal range(i32 0, 2) i32 @compress_first_pass(ptr noundef %0, ptr nocapture noundef readonly %1) #0 {
  %3 = getelementptr inbounds i8, ptr %0, i64 320
  %4 = load i32, ptr %3, align 8
  %5 = add i32 %4, -1
  %6 = getelementptr inbounds i8, ptr %0, i64 76
  %7 = load i32, ptr %6, align 4
  %8 = icmp sgt i32 %7, 0
  br i1 %8, label %.lr.ph126, label %._crit_edge127

.lr.ph126:                                        ; preds = %2
  %9 = getelementptr inbounds i8, ptr %0, i64 88
  %10 = load ptr, ptr %9, align 8
  %11 = getelementptr inbounds i8, ptr %0, i64 456
  %12 = load ptr, ptr %11, align 8
  %13 = getelementptr inbounds i8, ptr %0, i64 8
  %14 = getelementptr inbounds i8, ptr %12, i64 112
  %15 = getelementptr inbounds i8, ptr %12, i64 16
  %16 = getelementptr inbounds i8, ptr %0, i64 488
  br label %17

17:                                               ; preds = %.lr.ph126, %.loopexit99
  %indvars.iv156 = phi i64 [ 0, %.lr.ph126 ], [ %indvars.iv.next157, %.loopexit99 ]
  %.086123 = phi ptr [ %10, %.lr.ph126 ], [ %111, %.loopexit99 ]
  %18 = load ptr, ptr %13, align 8
  %19 = getelementptr inbounds i8, ptr %18, i64 64
  %20 = load ptr, ptr %19, align 8
  %21 = getelementptr inbounds [10 x ptr], ptr %14, i64 0, i64 %indvars.iv156
  %22 = load ptr, ptr %21, align 8
  %23 = load i32, ptr %15, align 8
  %24 = getelementptr inbounds i8, ptr %.086123, i64 12
  %25 = load i32, ptr %24, align 4
  %26 = mul i32 %25, %23
  %27 = tail call ptr %20(ptr noundef nonnull %0, ptr noundef %22, i32 noundef %26, i32 noundef %25, i32 noundef 1) #2
  %28 = load i32, ptr %15, align 8
  %29 = icmp ult i32 %28, %5
  br i1 %29, label %30, label %32

30:                                               ; preds = %17
  %31 = load i32, ptr %24, align 4
  br label %38

32:                                               ; preds = %17
  %33 = getelementptr inbounds i8, ptr %.086123, i64 32
  %34 = load i32, ptr %33, align 8
  %35 = load i32, ptr %24, align 4
  %36 = urem i32 %34, %35
  %37 = icmp eq i32 %36, 0
  %spec.select = select i1 %37, i32 %35, i32 %36
  br label %38

38:                                               ; preds = %32, %30
  %.088 = phi i32 [ %31, %30 ], [ %spec.select, %32 ]
  %39 = getelementptr inbounds i8, ptr %.086123, i64 28
  %40 = load i32, ptr %39, align 4
  %.fr160 = freeze i32 %40
  %41 = getelementptr inbounds i8, ptr %.086123, i64 8
  %42 = load i32, ptr %41, align 8
  %.fr = freeze i32 %42
  %43 = urem i32 %.fr160, %.fr
  %44 = icmp sgt i32 %43, 0
  %45 = sub i32 %.fr, %43
  %spec.select98 = select i1 %44, i32 %45, i32 %43
  %46 = icmp sgt i32 %.088, 0
  br i1 %46, label %.lr.ph, label %._crit_edge

.lr.ph:                                           ; preds = %38
  %47 = getelementptr inbounds ptr, ptr %1, i64 %indvars.iv156
  %48 = icmp sgt i32 %spec.select98, 0
  %49 = zext i32 %.fr160 to i64
  %50 = zext i32 %spec.select98 to i64
  %51 = shl nuw nsw i64 %50, 7
  %wide.trip.count140 = zext nneg i32 %.088 to i64
  br i1 %48, label %.lr.ph.split.us, label %.lr.ph.split

.lr.ph.split.us:                                  ; preds = %.lr.ph, %.loopexit.us
  %indvars.iv137 = phi i64 [ %indvars.iv.next138, %.loopexit.us ], [ 0, %.lr.ph ]
  %52 = getelementptr inbounds ptr, ptr %27, i64 %indvars.iv137
  %53 = load ptr, ptr %52, align 8
  %54 = load ptr, ptr %16, align 8
  %55 = getelementptr inbounds i8, ptr %54, i64 8
  %56 = load ptr, ptr %55, align 8
  %57 = load ptr, ptr %47, align 8
  %indvars.iv137.tr = trunc i64 %indvars.iv137 to i32
  %58 = shl i32 %indvars.iv137.tr, 3
  tail call void %56(ptr noundef %0, ptr noundef %.086123, ptr noundef %57, ptr noundef %53, i32 noundef %58, i32 noundef 0, i32 noundef %.fr160) #2
  %59 = getelementptr inbounds [64 x i16], ptr %53, i64 %49
  tail call void @jZeroFar(ptr noundef %59, i64 noundef %51) #2
  %60 = getelementptr inbounds i8, ptr %59, i64 -128
  %61 = load i16, ptr %60, align 2
  br label %62

62:                                               ; preds = %62, %.lr.ph.split.us
  %indvars.iv132 = phi i64 [ %indvars.iv.next133, %62 ], [ 0, %.lr.ph.split.us ]
  %63 = getelementptr inbounds [64 x i16], ptr %59, i64 %indvars.iv132
  store i16 %61, ptr %63, align 2
  %indvars.iv.next133 = add nuw nsw i64 %indvars.iv132, 1
  %exitcond136.not = icmp eq i64 %indvars.iv.next133, %50
  br i1 %exitcond136.not, label %.loopexit.us, label %62, !llvm.loop !15

.loopexit.us:                                     ; preds = %62
  %indvars.iv.next138 = add nuw nsw i64 %indvars.iv137, 1
  %exitcond141.not = icmp eq i64 %indvars.iv.next138, %wide.trip.count140
  br i1 %exitcond141.not, label %._crit_edge, label %.lr.ph.split.us, !llvm.loop !16

.lr.ph.split:                                     ; preds = %.lr.ph, %.lr.ph.split
  %indvars.iv = phi i64 [ %indvars.iv.next, %.lr.ph.split ], [ 0, %.lr.ph ]
  %64 = getelementptr inbounds ptr, ptr %27, i64 %indvars.iv
  %65 = load ptr, ptr %64, align 8
  %66 = load ptr, ptr %16, align 8
  %67 = getelementptr inbounds i8, ptr %66, i64 8
  %68 = load ptr, ptr %67, align 8
  %69 = load ptr, ptr %47, align 8
  %indvars.iv.tr = trunc i64 %indvars.iv to i32
  %70 = shl i32 %indvars.iv.tr, 3
  tail call void %68(ptr noundef %0, ptr noundef %.086123, ptr noundef %69, ptr noundef %65, i32 noundef %70, i32 noundef 0, i32 noundef %.fr160) #2
  %indvars.iv.next = add nuw nsw i64 %indvars.iv, 1
  %exitcond.not = icmp eq i64 %indvars.iv.next, %wide.trip.count140
  br i1 %exitcond.not, label %._crit_edge, label %.lr.ph.split, !llvm.loop !16

._crit_edge:                                      ; preds = %.lr.ph.split, %.loopexit.us, %38
  %71 = load i32, ptr %15, align 8
  %72 = icmp eq i32 %71, %5
  br i1 %72, label %73, label %.loopexit99

73:                                               ; preds = %._crit_edge
  %74 = add i32 %spec.select98, %.fr160
  %75 = udiv i32 %74, %.fr
  %76 = load i32, ptr %24, align 4
  %77 = icmp slt i32 %.088, %76
  br i1 %77, label %.lr.ph114, label %.loopexit99

.lr.ph114:                                        ; preds = %73
  %78 = zext i32 %74 to i64
  %79 = shl nuw nsw i64 %78, 7
  %.not = icmp ugt i32 %.fr, %74
  %80 = add nsw i32 %.fr, -1
  %81 = sext i32 %80 to i64
  %82 = sext i32 %.fr to i64
  br i1 %.not, label %.lr.ph114.split.preheader, label %.lr.ph114.split.us

.lr.ph114.split.preheader:                        ; preds = %.lr.ph114
  %83 = sext i32 %.088 to i64
  br label %.lr.ph114.split

.lr.ph114.split.us:                               ; preds = %.lr.ph114
  %84 = icmp sgt i32 %.fr, 0
  %85 = sext i32 %.088 to i64
  br i1 %84, label %.lr.ph110.us.us.preheader, label %.lr.ph110.us

.lr.ph110.us.us.preheader:                        ; preds = %.lr.ph114.split.us
  %wide.trip.count151 = zext nneg i32 %.fr to i64
  br label %.lr.ph110.us.us

.lr.ph110.us.us:                                  ; preds = %.lr.ph110.us.us.preheader, %._crit_edge111.split.us.us.us
  %indvars.iv153 = phi i64 [ %85, %.lr.ph110.us.us.preheader ], [ %indvars.iv.next154, %._crit_edge111.split.us.us.us ]
  %86 = getelementptr inbounds ptr, ptr %27, i64 %indvars.iv153
  %87 = load ptr, ptr %86, align 8
  %88 = getelementptr i8, ptr %86, i64 -8
  %89 = load ptr, ptr %88, align 8
  tail call void @jZeroFar(ptr noundef %87, i64 noundef %79) #2
  br label %.lr.ph104.us.us.us

.lr.ph104.us.us.us:                               ; preds = %._crit_edge105.us.us.us, %.lr.ph110.us.us
  %.0108.us.us.us = phi ptr [ %89, %.lr.ph110.us.us ], [ %95, %._crit_edge105.us.us.us ]
  %.085107.us.us.us = phi ptr [ %87, %.lr.ph110.us.us ], [ %94, %._crit_edge105.us.us.us ]
  %.090106.us.us.us = phi i32 [ 0, %.lr.ph110.us.us ], [ %96, %._crit_edge105.us.us.us ]
  %90 = getelementptr inbounds [64 x i16], ptr %.0108.us.us.us, i64 %81
  %91 = load i16, ptr %90, align 2
  br label %92

92:                                               ; preds = %92, %.lr.ph104.us.us.us
  %indvars.iv148 = phi i64 [ %indvars.iv.next149, %92 ], [ 0, %.lr.ph104.us.us.us ]
  %93 = getelementptr inbounds [64 x i16], ptr %.085107.us.us.us, i64 %indvars.iv148
  store i16 %91, ptr %93, align 2
  %indvars.iv.next149 = add nuw nsw i64 %indvars.iv148, 1
  %exitcond152.not = icmp eq i64 %indvars.iv.next149, %wide.trip.count151
  br i1 %exitcond152.not, label %._crit_edge105.us.us.us, label %92, !llvm.loop !17

._crit_edge105.us.us.us:                          ; preds = %92
  %94 = getelementptr inbounds [64 x i16], ptr %.085107.us.us.us, i64 %82
  %95 = getelementptr inbounds [64 x i16], ptr %.0108.us.us.us, i64 %82
  %96 = add nuw i32 %.090106.us.us.us, 1
  %97 = icmp ult i32 %96, %75
  br i1 %97, label %.lr.ph104.us.us.us, label %._crit_edge111.split.us.us.us, !llvm.loop !18

._crit_edge111.split.us.us.us:                    ; preds = %._crit_edge105.us.us.us
  %indvars.iv.next154 = add nsw i64 %indvars.iv153, 1
  %98 = load i32, ptr %24, align 4
  %99 = sext i32 %98 to i64
  %100 = icmp slt i64 %indvars.iv.next154, %99
  br i1 %100, label %.lr.ph110.us.us, label %.loopexit99, !llvm.loop !19

.lr.ph110.us:                                     ; preds = %.lr.ph114.split.us, %.lr.ph110.us
  %indvars.iv145 = phi i64 [ %indvars.iv.next146, %.lr.ph110.us ], [ %85, %.lr.ph114.split.us ]
  %101 = getelementptr inbounds ptr, ptr %27, i64 %indvars.iv145
  %102 = load ptr, ptr %101, align 8
  tail call void @jZeroFar(ptr noundef %102, i64 noundef %79) #2
  %indvars.iv.next146 = add nsw i64 %indvars.iv145, 1
  %103 = load i32, ptr %24, align 4
  %104 = sext i32 %103 to i64
  %105 = icmp slt i64 %indvars.iv.next146, %104
  br i1 %105, label %.lr.ph110.us, label %.loopexit99, !llvm.loop !19

.lr.ph114.split:                                  ; preds = %.lr.ph114.split.preheader, %.lr.ph114.split
  %indvars.iv142 = phi i64 [ %83, %.lr.ph114.split.preheader ], [ %indvars.iv.next143, %.lr.ph114.split ]
  %106 = getelementptr inbounds ptr, ptr %27, i64 %indvars.iv142
  %107 = load ptr, ptr %106, align 8
  tail call void @jZeroFar(ptr noundef %107, i64 noundef %79) #2
  %indvars.iv.next143 = add nsw i64 %indvars.iv142, 1
  %108 = load i32, ptr %24, align 4
  %109 = sext i32 %108 to i64
  %110 = icmp slt i64 %indvars.iv.next143, %109
  br i1 %110, label %.lr.ph114.split, label %.loopexit99, !llvm.loop !19

.loopexit99:                                      ; preds = %.lr.ph110.us, %._crit_edge111.split.us.us.us, %.lr.ph114.split, %73, %._crit_edge
  %indvars.iv.next157 = add nuw nsw i64 %indvars.iv156, 1
  %111 = getelementptr inbounds i8, ptr %.086123, i64 96
  %112 = load i32, ptr %6, align 4
  %113 = sext i32 %112 to i64
  %114 = icmp slt i64 %indvars.iv.next157, %113
  br i1 %114, label %17, label %._crit_edge127, !llvm.loop !20

._crit_edge127:                                   ; preds = %.loopexit99, %2
  %115 = tail call i32 @compress_output(ptr noundef nonnull %0, ptr poison)
  ret i32 %115
}